target datalayout = "e-m:e-p270:32:32-p271:32:32-p272:64:64-i64:64-i128:128-f80:128-n8:16:32:64-S128"
target triple = "x86_64-pc-linux-gnu"

%"class.nanobind::handle" = type { ptr }
%class.anon.1345 = type { i8 }
%"class.Eigen::SparseMatrix.1347" = type { %"class.Eigen::SparseCompressedBase.1348", i64, i64, ptr, ptr, %"class.Eigen::internal::CompressedStorage.1351" }
%"class.Eigen::SparseCompressedBase.1348" = type { %"class.Eigen::SparseMatrixBase.1349" }
%"class.Eigen::SparseMatrixBase.1349" = type { i8 }
%"class.Eigen::internal::CompressedStorage.1351" = type { ptr, ptr, i64, i64 }

; Function Attrs: mustprogress nounwind optsize uwtable
define linkonce_odr hidden void @_ZN5Eigen16SparseMatrixBaseINS_12SparseMatrixISt7complexIdELi0EiEEEC2Ev(ptr noundef nonnull align 1 dereferenceable(1) %0) unnamed_addr #1 comdat align 2 {
  %2 = alloca ptr, align 8
  store ptr %0, ptr %2, align 8, !tbaa !2661
  %3 = load ptr, ptr %2, align 8
  %4 = getelementptr inbounds nuw %"class.Eigen::SparseMatrixBase.1349", ptr %3, i32 0, i32 0
  store i8 0, ptr %4, align 1, !tbaa !2669
  ret void
}

; Function Attrs: mustprogress nounwind optsize uwtable
define linkonce_odr hidden void @_ZN5Eigen12SparseMatrixISt7complexIdELi0EiE25check_template_parametersEv() #1 comdat align 2 {
  ret void
}

; Function Attrs: mustprogress nounwind optsize uwtable
define linkonce_odr hidden void @_ZN5Eigen8internal17CompressedStorageISt7complexIdEiEC2Ev(ptr noundef nonnull align 8 dereferenceable(32) %0) unnamed_addr #1 comdat align 2 {
  %2 = alloca ptr, align 8
  store ptr %0, ptr %2, align 8, !tbaa !2663
  %3 = load ptr, ptr %2, align 8
  %4 = getelementptr inbounds nuw %"class.Eigen::internal::CompressedStorage.1351", ptr %3, i32 0, i32 0
  store ptr null, ptr %4, align 8, !tbaa !2665
  %5 = getelementptr inbounds nuw %"class.Eigen::internal::CompressedStorage.1351", ptr %3, i32 0, i32 1
  store ptr null, ptr %5, align 8, !tbaa !2666
  %6 = getelementptr inbounds nuw %"class.Eigen::internal::CompressedStorage.1351", ptr %3, i32 0, i32 2
  store i64 0, ptr %6, align 8, !tbaa !2667
  %7 = getelementptr inbounds nuw %"class.Eigen::internal::CompressedStorage.1351", ptr %3, i32 0, i32 3
  store i64 0, ptr %7, align 8, !tbaa !2668
  ret void
}

; Function Attrs: mustprogress optsize uwtable
define linkonce_odr hidden void @_ZN5Eigen20SparseCompressedBaseINS_12SparseMatrixISt7complexIdELi0EiEEEC2Ev(ptr noundef nonnull align 1 dereferenceable(1) %0) unnamed_addr #3 comdat align 2 {
  %2 = alloca ptr, align 8
  store ptr %0, ptr %2, align 8, !tbaa !2653
  %3 = load ptr, ptr %2, align 8
  call void @_ZN5Eigen16SparseMatrixBaseINS_12SparseMatrixISt7complexIdELi0EiEEEC2Ev(ptr noundef nonnull align 1 dereferenceable(1) %3) #24
  ret void
}

; Function Attrs: inlinehint mustprogress optsize uwtable
define linkonce_odr hidden void @_ZN5Eigen12SparseMatrixISt7complexIdELi0EiEC2Ev(ptr noundef nonnull align 8 dereferenceable(72) %0) unnamed_addr #10 comdat align 2 personality ptr @__gxx_personality_v0 {
  %2 = alloca ptr, align 8
  %3 = alloca ptr, align 8
  %4 = alloca i32, align 4
  store ptr %0, ptr %2, align 8, !tbaa !2644
  %5 = load ptr, ptr %2, align 8
  call void @_ZN5Eigen20SparseCompressedBaseINS_12SparseMatrixISt7complexIdELi0EiEEEC2Ev(ptr noundef nonnull align 1 dereferenceable(1) %5) #24
  %6 = getelementptr inbounds nuw %"class.Eigen::SparseMatrix.1347", ptr %5, i32 0, i32 1
  store i64 -1, ptr %6, align 8, !tbaa !2656
  %7 = getelementptr inbounds nuw %"class.Eigen::SparseMatrix.1347", ptr %5, i32 0, i32 2
  store i64 0, ptr %7, align 8, !tbaa !2655
  %8 = getelementptr inbounds nuw %"class.Eigen::SparseMatrix.1347", ptr %5, i32 0, i32 3
  store ptr null, ptr %8, align 8, !tbaa !2646
  %9 = getelementptr inbounds nuw %"class.Eigen::SparseMatrix.1347", ptr %5, i32 0, i32 4
  store ptr null, ptr %9, align 8, !tbaa !2652
  %10 = getelementptr inbounds nuw %"class.Eigen::SparseMatrix.1347", ptr %5, i32 0, i32 5
  call void @_ZN5Eigen8internal17CompressedStorageISt7complexIdEiEC2Ev(ptr noundef nonnull align 8 dereferenceable(32) %10) #24
  call void @_ZN5Eigen12SparseMatrixISt7complexIdELi0EiE25check_template_parametersEv() #24
  invoke void @_ZN5Eigen12SparseMatrixISt7complexIdELi0EiE6resizeEll(ptr noundef nonnull align 8 dereferenceable(72) %5, i64 noundef 0, i64 noundef 0) #24
          to label %11 unwind label %12

11:                                               ; preds = %1
  ret void

12:                                               ; preds = %1
  %13 = landingpad { ptr, i32 }
          cleanup
  %14 = extractvalue { ptr, i32 } %13, 0
  store ptr %14, ptr %3, align 8
  %15 = extractvalue { ptr, i32 } %13, 1
  store i32 %15, ptr %4, align 4
  call void @_ZN5Eigen8internal17CompressedStorageISt7complexIdEiED2Ev(ptr noundef nonnull align 8 dereferenceable(32) %10) #26
  br label %16

16:                                               ; preds = %12
  %17 = load ptr, ptr %3, align 8
  %18 = load i32, ptr %4, align 4
  %19 = insertvalue { ptr, i32 } poison, ptr %17, 0
  %20 = insertvalue { ptr, i32 } %19, i32 %18, 1
  resume { ptr, i32 } %20
}

; Function Attrs: inlinehint mustprogress nounwind optsize uwtable
define linkonce_odr hidden void @_ZN5Eigen12SparseMatrixISt7complexIdELi0EiED2Ev(ptr noundef nonnull align 8 dereferenceable(72) %0) unnamed_addr #11 comdat align 2 {
  %2 = alloca ptr, align 8
  store ptr %0, ptr %2, align 8, !tbaa !2644
  %3 = load ptr, ptr %2, align 8
  %4 = getelementptr inbounds nuw %"class.Eigen::SparseMatrix.1347", ptr %3, i32 0, i32 3
  %5 = load ptr, ptr %4, align 8, !tbaa !2646
  call void @free(ptr noundef %5) #26
  %6 = getelementptr inbounds nuw %"class.Eigen::SparseMatrix.1347", ptr %3, i32 0, i32 4
  %7 = load ptr, ptr %6, align 8, !tbaa !2652
  call void @free(ptr noundef %7) #26
  %8 = getelementptr inbounds nuw %"class.Eigen::SparseMatrix.1347", ptr %3, i32 0, i32 5
  call void @_ZN5Eigen8internal17CompressedStorageISt7complexIdEiED2Ev(ptr noundef nonnull align 8 dereferenceable(32) %8) #26
  ret void
}

; Function Attrs: alwaysinline mustprogress nounwind optsize uwtable
define linkonce_odr hidden noundef ptr @_ZNK8nanobind6handle3ptrEv(ptr noundef nonnull align 8 dereferenceable(8) %0) #7 comdat align 2 {
  %2 = alloca ptr, align 8
  store ptr %0, ptr %2, align 8, !tbaa !20
  %3 = load ptr, ptr %2, align 8
  %4 = getelementptr inbounds nuw %"class.nanobind::handle", ptr %3, i32 0, i32 0
  %5 = load ptr, ptr %4, align 8, !tbaa !22
  ret ptr %5
}

; Function Attrs: mustprogress nounwind optsize uwtable
define linkonce_odr hidden ptr @_ZN8nanobind6detail11type_casterIN5Eigen12SparseMatrixISt7complexIdELi0EiEEiE8from_cppEOS6_NS_9rv_policyEPNS0_12cleanup_listE(ptr noundef nonnull align 8 dereferenceable(72) %0, i32 noundef %1, ptr noundef %2) #1 comdat align 2 {
  %4 = alloca %"class.nanobind::handle", align 8
  %5 = alloca ptr, align 8
  %6 = alloca i32, align 4
  %7 = alloca ptr, align 8
  store ptr %0, ptr %5, align 8, !tbaa !2644
  store i32 %1, ptr %6, align 4, !tbaa !31
  store ptr %2, ptr %7, align 8, !tbaa !143
  %8 = load i32, ptr %6, align 4, !tbaa !31
  %9 = icmp eq i32 %8, 0
  br i1 %9, label %13, label %10

10:                                               ; preds = %3
  %11 = load i32, ptr %6, align 4, !tbaa !31
  %12 = icmp eq i32 %11, 1
  br i1 %12, label %13, label %14

13:                                               ; preds = %10, %3
  store i32 4, ptr %6, align 4, !tbaa !31
  br label %14

14:                                               ; preds = %13, %10
  %15 = load ptr, ptr %5, align 8, !tbaa !2644
  %16 = load i32, ptr %6, align 4, !tbaa !31
  %17 = load ptr, ptr %7, align 8, !tbaa !143
  %18 = call ptr @_ZN8nanobind6detail11type_casterIN5Eigen12SparseMatrixISt7complexIdELi0EiEEiE8from_cppERKS6_NS_9rv_policyEPNS0_12cleanup_listE(ptr noundef nonnull align 8 dereferenceable(72) %15, i32 noundef %16, ptr noundef %17) #26
  %19 = getelementptr inbounds nuw %"class.nanobind::handle", ptr %4, i32 0, i32 0
  store ptr %18, ptr %19, align 8
  %20 = getelementptr inbounds nuw %"class.nanobind::handle", ptr %4, i32 0, i32 0
  %21 = load ptr, ptr %20, align 8
  ret ptr %21
}

; Function Attrs: inlinehint mustprogress optsize uwtable
define internal void @"_ZZL28nanobind_init_test_eigen_extRN8nanobind7module_EENK4$_39clEv"(ptr dead_on_unwind noalias writable sret(%"class.Eigen::SparseMatrix.1347") align 8 %0, ptr noundef nonnull align 1 dereferenceable(1) %1) #10 align 2 {
  %3 = alloca ptr, align 8
  %4 = alloca ptr, align 8
  store ptr %0, ptr %3, align 8
  store ptr %1, ptr %4, align 8, !tbaa !41
  call void @_ZN5Eigen12SparseMatrixISt7complexIdELi0EiEC2Ev(ptr noundef nonnull align 8 dereferenceable(72) %0) #24
  ret void
}

; Function Attrs: alwaysinline mustprogress optsize uwtable
define internal noundef ptr @"_ZZN8nanobind6detail11func_createILb0ELb1EZL28nanobind_init_test_eigen_extRNS_7module_EE4$_39N5Eigen12SparseMatrixISt7complexIdELi0EiEEJETpTnmJEJNS_5scopeENS_4nameEEEEP7_objectOT1_PFT2_DpT3_ESt16integer_sequenceImJXspT4_EEEDpRKT5_ENKUlPvPSD_PhNS_9rv_policyEPNS0_12cleanup_listEE_clESR_SS_ST_SU_SW_"(ptr noundef nonnull align 1 dereferenceable(1) %0, ptr noundef %1, ptr noundef %2, ptr noundef %3, i32 noundef %4, ptr noundef %5) #5 align 2 {
  %7 = alloca ptr, align 8
  %8 = alloca ptr, align 8
  %9 = alloca ptr, align 8
  %10 = alloca ptr, align 8
  %11 = alloca i32, align 4
  %12 = alloca ptr, align 8
  %13 = alloca ptr, align 8
  %14 = alloca ptr, align 8
  %15 = alloca %"class.nanobind::handle", align 8
  %16 = alloca %"class.Eigen::SparseMatrix.1347", align 8
  store ptr %0, ptr %7, align 8, !tbaa !41
  store ptr %1, ptr %8, align 8, !tbaa !41
  store ptr %2, ptr %9, align 8, !tbaa !141
  store ptr %3, ptr %10, align 8, !tbaa !39
  store i32 %4, ptr %11, align 4, !tbaa !31
  store ptr %5, ptr %12, align 8, !tbaa !143
  call void @llvm.lifetime.start.p0(i64 8, ptr %13) #25
  %17 = load ptr, ptr %8, align 8, !tbaa !41
  store ptr %17, ptr %13, align 8, !tbaa !2640
  call void @llvm.lifetime.start.p0(i64 8, ptr %14) #25
  call void @llvm.lifetime.start.p0(i64 8, ptr %15) #25
  call void @llvm.lifetime.start.p0(i64 72, ptr %16) #25
  %18 = load ptr, ptr %13, align 8, !tbaa !2640
  call void @"_ZZL28nanobind_init_test_eigen_extRN8nanobind7module_EENK4$_39clEv"(ptr dead_on_unwind writable sret(%"class.Eigen::SparseMatrix.1347") align 8 %16, ptr noundef nonnull align 1 dereferenceable(1) %18) #24
  %19 = load i32, ptr %11, align 4, !tbaa !31
  %20 = load ptr, ptr %12, align 8, !tbaa !143
  %21 = call ptr @_ZN8nanobind6detail11type_casterIN5Eigen12SparseMatrixISt7complexIdELi0EiEEiE8from_cppEOS6_NS_9rv_policyEPNS0_12cleanup_listE(ptr noundef nonnull align 8 dereferenceable(72) %16, i32 noundef %19, ptr noundef %20) #26
  %22 = getelementptr inbounds nuw %"class.nanobind::handle", ptr %15, i32 0, i32 0
  store ptr %21, ptr %22, align 8
  %23 = call noundef ptr @_ZNK8nanobind6handle3ptrEv(ptr noundef nonnull align 8 dereferenceable(8) %15) #24
  store ptr %23, ptr %14, align 8, !tbaa !14
  call void @_ZN5Eigen12SparseMatrixISt7complexIdELi0EiED2Ev(ptr noundef nonnull align 8 dereferenceable(72) %16) #26
  call void @llvm.lifetime.end.p0(i64 72, ptr %16) #25
  call void @llvm.lifetime.end.p0(i64 8, ptr %15) #25
  %24 = load ptr, ptr %14, align 8, !tbaa !14
  call void @llvm.lifetime.end.p0(i64 8, ptr %14) #25
  call void @llvm.lifetime.end.p0(i64 8, ptr %13) #25
  ret ptr %24
}

; Function Attrs: inlinehint mustprogress optsize uwtable
define internal noundef ptr @"_ZZN8nanobind6detail11func_createILb0ELb1EZL28nanobind_init_test_eigen_extRNS_7module_EE4$_39N5Eigen12SparseMatrixISt7complexIdELi0EiEEJETpTnmJEJNS_5scopeENS_4nameEEEEP7_objectOT1_PFT2_DpT3_ESt16integer_sequenceImJXspT4_EEEDpRKT5_ENUlPvPSD_PhNS_9rv_policyEPNS0_12cleanup_listEE_8__invokeESR_SS_ST_SU_SW_"(ptr noundef %0, ptr noundef %1, ptr noundef %2, i32 noundef %3, ptr noundef %4) #10 align 2 {
  %6 = alloca ptr, align 8
  %7 = alloca ptr, align 8
  %8 = alloca ptr, align 8
  %9 = alloca i32, align 4
  %10 = alloca ptr, align 8
  %11 = alloca %class.anon.1345, align 1
  store ptr %0, ptr %6, align 8, !tbaa !41
  store ptr %1, ptr %7, align 8, !tbaa !141
  store ptr %2, ptr %8, align 8, !tbaa !39
  store i32 %3, ptr %9, align 4, !tbaa !31
  store ptr %4, ptr %10, align 8, !tbaa !143
  %12 = load ptr, ptr %6, align 8, !tbaa !41
  %13 = load ptr, ptr %7, align 8, !tbaa !141
  %14 = load ptr, ptr %8, align 8, !tbaa !39
  %15 = load i32, ptr %9, align 4, !tbaa !31
  %16 = load ptr, ptr %10, align 8, !tbaa !143
  %17 = call noundef ptr @"_ZZN8nanobind6detail11func_createILb0ELb1EZL28nanobind_init_test_eigen_extRNS_7module_EE4$_39N5Eigen12SparseMatrixISt7complexIdELi0EiEEJETpTnmJEJNS_5scopeENS_4nameEEEEP7_objectOT1_PFT2_DpT3_ESt16integer_sequenceImJXspT4_EEEDpRKT5_ENKUlPvPSD_PhNS_9rv_policyEPNS0_12cleanup_listEE_clESR_SS_ST_SU_SW_"(ptr noundef nonnull align 1 dereferenceable(1) %11, ptr noundef %12, ptr noundef %13, ptr noundef %14, i32 noundef %15, ptr noundef %16) #24
  ret ptr %17
}