; Function Attrs: inlinehint mustprogress optsize uwtable
define internal noundef ptr @"_ZZN8nanobind6detail11func_createILb0ELb1EZL28nanobind_init_test_eigen_extRNS_7module_EE4$_39N5Eigen12SparseMatrixISt7complexIdELi0EiEEJETpTnmJEJNS_5scopeENS_4nameEEEEP7_objectOT1_PFT2_DpT3_ESt16integer_sequenceImJXspT4_EEEDpRKT5_ENUlPvPSD_PhNS_9rv_policyEPNS0_12cleanup_listEE_8__invokeESR_SS_ST_SU_SW_"(ptr readnone captures(none) %0, ptr readnone captures(none) %1, ptr readnone captures(none) %2, i32 noundef %3, ptr noundef %4) #18 align 2 personality ptr @__gxx_personality_v0 {
  %6 = alloca %"class.Eigen::SparseMatrix.1347", align 8
  call void @llvm.lifetime.start.p0(i64 72, ptr nonnull %6) #32
  store i8 0, ptr %6, align 8, !tbaa !911, !alias.scope !913
  %7 = getelementptr inbounds nuw i8, ptr %6, i64 8
  store i64 -1, ptr %7, align 8, !tbaa !916, !alias.scope !913
  %8 = getelementptr inbounds nuw i8, ptr %6, i64 16
  call void @llvm.memset.p0.i64(ptr noundef nonnull align 8 dereferenceable(56) %8, i8 0, i64 56, i1 false), !alias.scope !913
  invoke void @_ZN5Eigen12SparseMatrixISt7complexIdELi0EiE6resizeEll(ptr noundef nonnull align 8 dereferenceable(72) %6, i64 noundef 0, i64 noundef 0) #31
          to label %"_ZZL28nanobind_init_test_eigen_extRN8nanobind7module_EENK4$_39clEv.exit" unwind label %9

9:                                                ; preds = %5
  %10 = landingpad { ptr, i32 }
          cleanup
  %11 = getelementptr inbounds nuw i8, ptr %6, i64 40
  call void @_ZN5Eigen8internal17CompressedStorageISt7complexIdEiED2Ev(ptr noundef nonnull align 8 dereferenceable(32) %11) #33
  resume { ptr, i32 } %10

"_ZZL28nanobind_init_test_eigen_extRN8nanobind7module_EENK4$_39clEv.exit": ; preds = %5
  %or.cond.i = icmp ult i32 %3, 2
  %spec.store.select.i = select i1 %or.cond.i, i32 4, i32 %3
  %12 = call ptr @_ZN8nanobind6detail11type_casterIN5Eigen12SparseMatrixISt7complexIdELi0EiEEiE8from_cppERKS6_NS_9rv_policyEPNS0_12cleanup_listE(ptr noundef nonnull align 8 dereferenceable(72) %6, i32 noundef %spec.store.select.i, ptr noundef %4) #33
  %13 = getelementptr inbounds nuw i8, ptr %6, i64 24
  %14 = load ptr, ptr %13, align 8, !tbaa !921
  call void @free(ptr noundef %14) #33
  %15 = getelementptr inbounds nuw i8, ptr %6, i64 32
  %16 = load ptr, ptr %15, align 8, !tbaa !922
  call void @free(ptr noundef %16) #33
  %17 = getelementptr inbounds nuw i8, ptr %6, i64 40
  call void @_ZN5Eigen8internal17CompressedStorageISt7complexIdEiED2Ev(ptr noundef nonnull align 8 dereferenceable(32) %17) #33
  call void @llvm.lifetime.end.p0(i64 72, ptr nonnull %6) #32
  ret ptr %12
}